(dp0
S'mod_Last'
p1
ccopy_reg
_reconstructor
p2
(cmodel_tools
SymbolicModel
p3
c__builtin__
object
p4
Ntp5
Rp6
(dp7
S'A'
p8
NsS'x'
p9
NsS'qs'
p10
g2
(csympy.matrices.dense
MutableDenseMatrix
p11
g4
Ntp12
Rp13
(dp14
S'rows'
p15
I4
sS'_mat'
p16
(lp17
csympy.core.symbol
Symbol
p18
(S'q1'
p19
tp20
Rp21
(dp22
S'_assumptions'
p23
g2
(csympy.core.assumptions
StdFactKB
p24
c__builtin__
dict
p25
(dp26
S'real'
p27
NsS'nonzero'
p28
NsS'irrational'
p29
NsS'antihermitian'
p30
NsS'nonpositive'
p31
NsS'negative'
p32
NsS'algebraic'
p33
NsS'hermitian'
p34
NsS'infinite'
p35
NsS'integer'
p36
NsS'imaginary'
p37
NsS'odd'
p38
NsS'even'
p39
NsS'commutative'
p40
I01
sS'positive'
p41
NsS'zero'
p42
NsS'nonnegative'
p43
NsS'complex'
p44
NsS'rational'
p45
NsS'finite'
p46
Nstp47
Rp48
sbag18
(S'q2'
p49
tp50
Rp51
(dp52
g23
g2
(g24
g25
(dp53
g27
Nsg29
Nsg30
Nsg31
Nsg32
Nsg33
Nsg42
Nsg35
Nsg36
Nsg37
Nsg38
Nsg39
Nsg40
I01
sg41
Nsg34
Nsg43
Nsg44
Nsg45
Nsg46
Nstp54
Rp55
sbag18
(S'q3'
p56
tp57
Rp58
(dp59
g23
g2
(g24
g25
(dp60
g27
Nsg29
Nsg30
Nsg31
Nsg32
Nsg33
Nsg42
Nsg35
Nsg36
Nsg37
Nsg38
Nsg39
Nsg40
I01
sg41
Nsg34
Nsg43
Nsg44
Nsg45
Nsg46
Nstp61
Rp62
sbag18
(S'q4'
p63
tp64
Rp65
(dp66
g23
g2
(g24
g25
(dp67
g27
Nsg29
Nsg30
Nsg31
Nsg32
Nsg33
Nsg42
Nsg35
Nsg36
Nsg37
Nsg38
Nsg39
Nsg40
I01
sg41
Nsg34
Nsg43
Nsg44
Nsg45
Nsg46
Nstp68
Rp69
sbasS'cols'
p70
I1
sbsS'b'
p71
NsS'extforce_list'
p72
g2
(g11
g4
Ntp73
Rp74
(dp75
g15
I4
sg16
(lp76
csympy.core.numbers
Zero
p77
(tRp78
(dp79
bag78
ag78
ag78
asg70
I1
sbsS'g'
p80
NsS'f'
p81
NsS'h'
p82
NsS'eq_list'
p83
g2
(g11
g4
Ntp84
Rp85
(dp86
g15
I4
sg16
(lp87
csympy.core.add
Add
p88
(csympy.core.mul
Mul
p89
(csympy.core.numbers
Half
p90
(tRp91
(dp92
bg18
(S'm'
p93
tp94
Rp95
(dp96
g23
g2
(g24
g25
(dp97
S'commutative'
p98
I01
sS'antihermitian'
p99
NsS'nonpositive'
p100
NsS'positive'
p101
NsS'negative'
p102
NsS'nonnegative'
p103
NsS'algebraic'
p104
NsS'zero'
p105
NsS'complex'
p106
NsS'rational'
p107
NsS'infinite'
p108
NsS'hermitian'
p109
NsS'finite'
p110
NsS'irrational'
p111
Nstp112
Rp113
sbg88
(g89
(g88
(g89
(csympy.core.numbers
Integer
p114
(I-2
tp115
Rp116
(dp117
bg18
(S'a1'
p118
tp119
Rp120
(dp121
g23
g2
(g24
g25
(dp122
g27
NsS'polar'
p123
Nsg29
Nsg30
Nsg31
Nsg32
Nsg33
Nsg34
Nsg35
Nsg36
Nsg37
Nsg38
Nsg39
Nsg40
I01
sg41
Nsg42
Nsg43
Nsg44
Nsg45
Nsg46
Nstp124
Rp125
sbcsympy.functions.elementary.trigonometric
sin
p126
(g21
tp127
Rp128
(dp129
btp130
Rp131
(dp132
bg89
(g116
g18
(S'a2'
p133
tp134
Rp135
(dp136
g23
g2
(g24
g25
(dp137
g27
Nsg123
Nsg29
Nsg30
Nsg31
Nsg32
Nsg33
Nsg34
Nsg35
Nsg36
Nsg37
Nsg38
Nsg39
Nsg40
I01
sg41
Nsg42
Nsg43
Nsg44
Nsg45
Nsg46
Nstp138
Rp139
sbg126
(g88
(g21
g51
tp140
Rp141
(dp142
btp143
Rp144
(dp145
btp146
Rp147
(dp148
bg89
(g116
g18
(S'a3'
p149
tp150
Rp151
(dp152
g23
g2
(g24
g25
(dp153
g27
Nsg123
Nsg29
Nsg30
Nsg31
Nsg32
Nsg33
Nsg34
Nsg35
Nsg36
Nsg37
Nsg38
Nsg39
Nsg40
I01
sg41
Nsg42
Nsg43
Nsg44
Nsg45
Nsg46
Nstp154
Rp155
sbg126
(g88
(g21
g51
g58
tp156
Rp157
(dp158
btp159
Rp160
(dp161
btp162
Rp163
(dp164
bg89
(g116
g18
(S'a4'
p165
tp166
Rp167
(dp168
g23
g2
(g24
g25
(dp169
g27
Nsg123
Nsg29
Nsg30
Nsg31
Nsg32
Nsg33
Nsg34
Nsg35
Nsg36
Nsg37
Nsg38
Nsg39
Nsg40
I01
sg41
Nsg42
Nsg43
Nsg44
Nsg45
Nsg46
Nstp170
Rp171
sbg126
(g88
(g21
g51
g58
g65
tp172
Rp173
(dp174
btp175
Rp176
(dp177
btp178
Rp179
(dp180
btp181
Rp182
(dp183
bg88
(g89
(csympy.core.numbers
NegativeOne
p184
(tRp185
(dp186
bg120
g18
(S'q1_dd'
p187
tp188
Rp189
(dp190
g23
g2
(g24
g25
(dp191
g101
Nsg105
Nsg40
I01
sg102
Nstp192
Rp193
sbg128
tp194
Rp195
(dp196
bg89
(g185
g120
csympy.core.power
Pow
p197
(g18
(S'q1_d'
p198
tp199
Rp200
(dp201
g23
g2
(g24
g25
(dp202
g27
Nsg29
Nsg30
Nsg31
Nsg32
Nsg33
Nsg42
Nsg35
Nsg36
Nsg37
Nsg38
Nsg39
Nsg40
I01
sg41
Nsg34
Nsg43
Nsg44
Nsg45
Nsg46
Nstp203
Rp204
sbg114
(I2
tp205
Rp206
(dp207
btp208
Rp209
(dp210
bcsympy.functions.elementary.trigonometric
cos
p211
(g21
tp212
Rp213
(dp214
btp215
Rp216
(dp217
bg89
(g185
g135
g197
(g88
(g200
g18
(S'q2_d'
p218
tp219
Rp220
(dp221
g23
g2
(g24
g25
(dp222
g27
Nsg29
Nsg30
Nsg31
Nsg32
Nsg33
Nsg42
Nsg35
Nsg36
Nsg37
Nsg38
Nsg39
Nsg40
I01
sg41
Nsg34
Nsg43
Nsg44
Nsg45
Nsg46
Nstp223
Rp224
sbtp225
Rp226
(dp227
bg206
tp228
Rp229
(dp230
bg211
(g141
tp231
Rp232
(dp233
btp234
Rp235
(dp236
bg89
(g185
g135
g88
(g189
g18
(S'q2_dd'
p237
tp238
Rp239
(dp240
g23
g2
(g24
g25
(dp241
g27
Nsg29
Nsg30
Nsg31
Nsg32
Nsg33
Nsg42
Nsg35
Nsg36
Nsg37
Nsg38
Nsg39
Nsg40
I01
sg41
Nsg34
Nsg43
Nsg44
Nsg45
Nsg46
Nstp242
Rp243
sbtp244
Rp245
(dp246
bg144
tp247
Rp248
(dp249
bg89
(g185
g151
g197
(g88
(g200
g220
g18
(S'q3_d'
p250
tp251
Rp252
(dp253
g23
g2
(g24
g25
(dp254
g27
Nsg29
Nsg30
Nsg31
Nsg32
Nsg33
Nsg42
Nsg35
Nsg36
Nsg37
Nsg38
Nsg39
Nsg40
I01
sg41
Nsg34
Nsg43
Nsg44
Nsg45
Nsg46
Nstp255
Rp256
sbtp257
Rp258
(dp259
bg206
tp260
Rp261
(dp262
bg211
(g157
tp263
Rp264
(dp265
btp266
Rp267
(dp268
bg89
(g185
g151
g88
(g189
g239
g18
(S'q3_dd'
p269
tp270
Rp271
(dp272
g23
g2
(g24
g25
(dp273
g27
Nsg29
Nsg30
Nsg31
Nsg32
Nsg33
Nsg42
Nsg35
Nsg36
Nsg37
Nsg38
Nsg39
Nsg40
I01
sg41
Nsg34
Nsg43
Nsg44
Nsg45
Nsg46
Nstp274
Rp275
sbtp276
Rp277
(dp278
bg160
tp279
Rp280
(dp281
bg89
(g185
g167
g197
(g88
(g200
g220
g252
g18
(S'q4_d'
p282
tp283
Rp284
(dp285
g23
g2
(g24
g25
(dp286
g27
Nsg29
Nsg30
Nsg31
Nsg32
Nsg33
Nsg42
Nsg35
Nsg36
Nsg37
Nsg38
Nsg39
Nsg40
I01
sg41
Nsg34
Nsg43
Nsg44
Nsg45
Nsg46
Nstp287
Rp288
sbtp289
Rp290
(dp291
bg206
tp292
Rp293
(dp294
bg211
(g173
tp295
Rp296
(dp297
btp298
Rp299
(dp300
bg89
(g185
g167
g88
(g189
g239
g271
g18
(S'q4_dd'
p301
tp302
Rp303
(dp304
g23
g2
(g24
g25
(dp305
g39
Nsg42
Nsg40
I01
sg35
Nsg41
Nsg46
Nsg32
Nstp306
Rp307
sbtp308
Rp309
(dp310
bg176
tp311
Rp312
(dp313
btp314
Rp315
(dp316
btp317
Rp318
(dp319
bg89
(g88
(g89
(g206
g120
g213
tp320
Rp321
(dp322
bg89
(g206
g135
g232
tp323
Rp324
(dp325
bg89
(g206
g151
g264
tp326
Rp327
(dp328
bg89
(g206
g167
g296
tp329
Rp330
(dp331
btp332
Rp333
(dp334
bg88
(g89
(g120
g189
g213
tp335
Rp336
(dp337
bg89
(g135
g245
g232
tp338
Rp339
(dp340
bg89
(g151
g277
g264
tp341
Rp342
(dp343
bg89
(g167
g309
g296
tp344
Rp345
(dp346
bg89
(g185
g120
g209
g128
tp347
Rp348
(dp349
bg89
(g185
g135
g229
g144
tp350
Rp351
(dp352
bg89
(g185
g151
g261
g160
tp353
Rp354
(dp355
bg89
(g185
g167
g293
g176
tp356
Rp357
(dp358
btp359
Rp360
(dp361
btp362
Rp363
(dp364
bg89
(g88
(g89
(g120
g200
g213
tp365
Rp366
(dp367
bg89
(g135
g88
(g200
g220
tp368
Rp369
(dp370
bg232
tp371
Rp372
(dp373
bg89
(g151
g88
(g200
g220
g252
tp374
Rp375
(dp376
bg264
tp377
Rp378
(dp379
bg89
(g167
g88
(g200
g220
g252
g284
tp380
Rp381
(dp382
bg296
tp383
Rp384
(dp385
btp386
Rp387
(dp388
bg88
(g89
(g116
g120
g200
g128
tp389
Rp390
(dp391
bg89
(g116
g135
g369
g144
tp392
Rp393
(dp394
bg89
(g116
g151
g375
g160
tp395
Rp396
(dp397
bg89
(g116
g167
g381
g176
tp398
Rp399
(dp400
btp401
Rp402
(dp403
btp404
Rp405
(dp406
bg89
(g88
(g89
(g185
g120
g200
g128
tp407
Rp408
(dp409
bg89
(g185
g135
g369
g144
tp410
Rp411
(dp412
bg89
(g185
g151
g375
g160
tp413
Rp414
(dp415
bg89
(g185
g167
g381
g176
tp416
Rp417
(dp418
btp419
Rp420
(dp421
bg88
(g89
(g116
g120
g200
g213
tp422
Rp423
(dp424
bg89
(g116
g135
g369
g232
tp425
Rp426
(dp427
bg89
(g116
g151
g375
g264
tp428
Rp429
(dp430
bg89
(g116
g167
g381
g296
tp431
Rp432
(dp433
btp434
Rp435
(dp436
btp437
Rp438
(dp439
btp440
Rp441
(dp442
btp443
Rp444
(dp445
bg89
(csympy.core.numbers
Rational
p446
(I-1
I2
tp447
Rp448
(dp449
bg95
g88
(g405
g438
tp450
Rp451
(dp452
btp453
Rp454
(dp455
bg89
(csympy.core.numbers
Float
p456
((I0
S'139eb851eb851f'
p457
I-49
I53
tp458
tp459
Rp460
(dp461
S'_prec'
p462
I53
sbg95
g88
(g89
(g120
g213
tp463
Rp464
(dp465
bg89
(g135
g232
tp466
Rp467
(dp468
bg89
(g151
g264
tp469
Rp470
(dp471
bg89
(g167
g296
tp472
Rp473
(dp474
btp475
Rp476
(dp477
btp478
Rp479
(dp480
btp481
Rp482
(dp483
bag88
(g89
(g91
g95
g88
(g89
(g88
(g89
(g116
g135
g144
tp484
Rp485
(dp486
bg89
(g116
g151
g160
tp487
Rp488
(dp489
bg89
(g116
g167
g176
tp490
Rp491
(dp492
btp493
Rp494
(dp495
bg315
tp496
Rp497
(dp498
bg89
(g88
(g89
(g206
g135
g232
tp499
Rp500
(dp501
bg89
(g206
g151
g264
tp502
Rp503
(dp504
bg89
(g206
g167
g296
tp505
Rp506
(dp507
btp508
Rp509
(dp510
bg360
tp511
Rp512
(dp513
bg89
(g88
(g89
(g116
g135
g369
g232
tp514
Rp515
(dp516
bg89
(g116
g151
g375
g264
tp517
Rp518
(dp519
bg89
(g116
g167
g381
g296
tp520
Rp521
(dp522
btp523
Rp524
(dp525
bg420
tp526
Rp527
(dp528
bg89
(g88
(g89
(g116
g135
g369
g144
tp529
Rp530
(dp531
bg89
(g116
g151
g375
g160
tp532
Rp533
(dp534
bg89
(g116
g167
g381
g176
tp535
Rp536
(dp537
btp538
Rp539
(dp540
bg387
tp541
Rp542
(dp543
btp544
Rp545
(dp546
btp547
Rp548
(dp549
bg89
(g448
g95
g88
(g527
g542
tp550
Rp551
(dp552
btp553
Rp554
(dp555
bg89
(g456
((I0
S'139eb851eb851f'
p556
I-49
I53
tp557
tp558
Rp559
(dp560
g462
I53
sbg95
g88
(g467
g470
g473
tp561
Rp562
(dp563
btp564
Rp565
(dp566
btp567
Rp568
(dp569
bag88
(g89
(g91
g95
g88
(g89
(g88
(g89
(g116
g151
g160
tp570
Rp571
(dp572
bg89
(g116
g167
g176
tp573
Rp574
(dp575
btp576
Rp577
(dp578
bg315
tp579
Rp580
(dp581
bg89
(g88
(g89
(g206
g151
g264
tp582
Rp583
(dp584
bg89
(g206
g167
g296
tp585
Rp586
(dp587
btp588
Rp589
(dp590
bg360
tp591
Rp592
(dp593
bg89
(g88
(g89
(g116
g151
g375
g264
tp594
Rp595
(dp596
bg89
(g116
g167
g381
g296
tp597
Rp598
(dp599
btp600
Rp601
(dp602
bg420
tp603
Rp604
(dp605
bg89
(g88
(g89
(g116
g151
g375
g160
tp606
Rp607
(dp608
bg89
(g116
g167
g381
g176
tp609
Rp610
(dp611
btp612
Rp613
(dp614
bg387
tp615
Rp616
(dp617
btp618
Rp619
(dp620
btp621
Rp622
(dp623
bg89
(g448
g95
g88
(g604
g616
tp624
Rp625
(dp626
btp627
Rp628
(dp629
bg89
(g456
((I0
S'139eb851eb851f'
p630
I-49
I53
tp631
tp632
Rp633
(dp634
g462
I53
sbg95
g88
(g470
g473
tp635
Rp636
(dp637
btp638
Rp639
(dp640
btp641
Rp642
(dp643
bag88
(g89
(g91
g95
g88
(g89
(g116
g167
g315
g176
tp644
Rp645
(dp646
bg89
(g206
g167
g360
g296
tp647
Rp648
(dp649
bg89
(g116
g167
g381
g387
g176
tp650
Rp651
(dp652
bg89
(g116
g167
g381
g420
g296
tp653
Rp654
(dp655
btp656
Rp657
(dp658
btp659
Rp660
(dp661
bg89
(g448
g95
g88
(g89
(g116
g167
g381
g387
g176
tp662
Rp663
(dp664
bg89
(g116
g167
g381
g420
g296
tp665
Rp666
(dp667
btp668
Rp669
(dp670
btp671
Rp672
(dp673
bg89
(g456
((I0
S'139eb851eb851f'
p674
I-49
I53
tp675
tp676
Rp677
(dp678
g462
I53
sbg167
g95
g296
tp679
Rp680
(dp681
btp682
Rp683
(dp684
basg70
I1
sbsS'xd'
p685
NsS'qdds'
p686
g2
(g11
g4
Ntp687
Rp688
(dp689
g15
I4
sg16
(lp690
g189
ag239
ag271
ag303
asg70
I1
sbsS'u'
p691
NsS'qds'
p692
g2
(g11
g4
Ntp693
Rp694
(dp695
g15
I4
sg16
(lp696
g200
ag220
ag252
ag284
asg70
I1
sbsS'zero_equilibrium'
p697
NsS'state_eq'
p698
NsS'solved_eq'
p699
NsS'U'
p700
g89
(g456
((I0
S'139eb851eb851f'
p701
I-49
I53
tp702
tp703
Rp704
(dp705
g462
I53
sbg95
g88
(g89
(g120
g128
tp706
Rp707
(dp708
bg89
(g135
g144
tp709
Rp710
(dp711
bg89
(g151
g160
tp712
Rp713
(dp714
bg89
(g167
g176
tp715
Rp716
(dp717
btp718
Rp719
(dp720
btp721
Rp722
(dp723
bsS'disforce_list'
p724
NsS'T'
p725
g89
(g91
g95
g88
(g197
(g88
(g89
(g120
g200
g213
tp726
Rp727
(dp728
bg89
(g135
g226
g232
tp729
Rp730
(dp731
bg89
(g151
g258
g264
tp732
Rp733
(dp734
bg89
(g167
g290
g296
tp735
Rp736
(dp737
btp738
Rp739
(dp740
bg206
tp741
Rp742
(dp743
bg197
(g88
(g89
(g185
g120
g200
g128
tp744
Rp745
(dp746
bg89
(g185
g135
g226
g144
tp747
Rp748
(dp749
bg89
(g185
g151
g258
g160
tp750
Rp751
(dp752
bg89
(g185
g167
g290
g176
tp753
Rp754
(dp755
btp756
Rp757
(dp758
bg206
tp759
Rp760
(dp761
btp762
Rp763
(dp764
btp765
Rp766
(dp767
bsbs.