(dp0
S'mod_Last'
p1
ccopy_reg
_reconstructor
p2
(cmodel_tools
SymbolicModel
p3
c__builtin__
object
p4
Ntp5
Rp6
(dp7
S'A'
p8
NsS'x'
p9
NsS'qs'
p10
g2
(csympy.matrices.dense
MutableDenseMatrix
p11
g4
Ntp12
Rp13
(dp14
S'rows'
p15
I4
sS'_mat'
p16
(lp17
csympy.core.symbol
Symbol
p18
(S'q1'
p19
tp20
Rp21
(dp22
S'_assumptions'
p23
g2
(csympy.core.assumptions
StdFactKB
p24
c__builtin__
dict
p25
(dp26
S'real'
p27
NsS'nonzero'
p28
NsS'irrational'
p29
NsS'antihermitian'
p30
NsS'nonpositive'
p31
NsS'unbounded'
p32
NsS'negative'
p33
NsS'algebraic'
p34
NsS'hermitian'
p35
NsS'infinite'
p36
NsS'integer'
p37
NsS'imaginary'
p38
NsS'odd'
p39
NsS'even'
p40
NsS'commutative'
p41
I01
sS'positive'
p42
NsS'zero'
p43
NsS'nonnegative'
p44
NsS'complex'
p45
NsS'rational'
p46
NsS'finite'
p47
Nstp48
Rp49
sbag18
(S'q2'
p50
tp51
Rp52
(dp53
g23
g2
(g24
g25
(dp54
g27
Nsg29
Nsg30
Nsg31
Nsg32
Nsg33
Nsg34
Nsg43
Nsg36
Nsg37
Nsg38
Nsg39
Nsg40
Nsg41
I01
sg42
Nsg35
Nsg44
Nsg45
Nsg46
Nsg47
Nstp55
Rp56
sbag18
(S'q3'
p57
tp58
Rp59
(dp60
g23
g2
(g24
g25
(dp61
g27
Nsg29
Nsg30
Nsg31
Nsg32
Nsg33
Nsg34
Nsg43
Nsg36
Nsg37
Nsg38
Nsg39
Nsg40
Nsg41
I01
sg42
Nsg35
Nsg44
Nsg45
Nsg46
Nsg47
Nstp62
Rp63
sbag18
(S'q4'
p64
tp65
Rp66
(dp67
g23
g2
(g24
g25
(dp68
g27
Nsg29
Nsg30
Nsg31
Nsg32
Nsg33
Nsg34
Nsg43
Nsg36
Nsg37
Nsg38
Nsg39
Nsg40
Nsg41
I01
sg42
Nsg35
Nsg44
Nsg45
Nsg46
Nsg47
Nstp69
Rp70
sbasS'cols'
p71
I1
sbsS'b'
p72
NsS'extforce_list'
p73
g2
(g11
g4
Ntp74
Rp75
(dp76
g15
I4
sg16
(lp77
csympy.core.numbers
Zero
p78
(tRp79
(dp80
bag79
ag79
ag79
asg71
I1
sbsS'g'
p81
NsS'f'
p82
NsS'h'
p83
NsS'eq_list'
p84
g2
(g11
g4
Ntp85
Rp86
(dp87
g15
I4
sg16
(lp88
csympy.core.add
Add
p89
(csympy.core.mul
Mul
p90
(csympy.core.numbers
Float
p91
((I0
S'139eb851eb851fL'
p92
I-49
I53
tp93
tp94
Rp95
(dp96
S'_prec'
p97
I53
sbg18
(S'm'
p98
tp99
Rp100
(dp101
g23
g2
(g24
g25
(dp102
S'real'
p103
NsS'commutative'
p104
I01
sS'antihermitian'
p105
NsS'nonpositive'
p106
NsS'positive'
p107
NsS'negative'
p108
NsS'nonnegative'
p109
NsS'hermitian'
p110
NsS'zero'
p111
NsS'bounded'
p112
NsS'rational'
p113
NsS'imaginary'
p114
NsS'irrational'
p115
Nstp116
Rp117
sbg89
(g90
(g18
(S'a4'
p118
tp119
Rp120
(dp121
g23
g2
(g24
g25
(dp122
g27
NsS'polar'
p123
Nsg29
Nsg30
Nsg31
Nsg33
Nsg34
Nsg35
Nsg112
Nsg36
Nsg37
Nsg38
Nsg39
Nsg40
Nsg41
I01
sg42
Nsg43
Nsg44
Nsg45
Nsg46
Nsg47
Nstp124
Rp125
sbcsympy.functions.elementary.trigonometric
cos
p126
(g89
(g66
g21
g52
g59
tp127
Rp128
(dp129
btp130
Rp131
(dp132
btp133
Rp134
(dp135
bg90
(g18
(S'a1'
p136
tp137
Rp138
(dp139
g23
g2
(g24
g25
(dp140
g27
Nsg123
Nsg29
Nsg30
Nsg31
Nsg33
Nsg34
Nsg35
Nsg112
Nsg36
Nsg37
Nsg38
Nsg39
Nsg40
Nsg41
I01
sg42
Nsg43
Nsg44
Nsg45
Nsg46
Nsg47
Nstp141
Rp142
sbg126
(g21
tp143
Rp144
(dp145
btp146
Rp147
(dp148
bg90
(g18
(S'a3'
p149
tp150
Rp151
(dp152
g23
g2
(g24
g25
(dp153
g27
Nsg123
Nsg29
Nsg30
Nsg31
Nsg33
Nsg34
Nsg35
Nsg112
Nsg36
Nsg37
Nsg38
Nsg39
Nsg40
Nsg41
I01
sg42
Nsg43
Nsg44
Nsg45
Nsg46
Nsg47
Nstp154
Rp155
sbg126
(g89
(g21
g52
g59
tp156
Rp157
(dp158
btp159
Rp160
(dp161
btp162
Rp163
(dp164
bg90
(g18
(S'a2'
p165
tp166
Rp167
(dp168
g23
g2
(g24
g25
(dp169
g27
Nsg123
Nsg29
Nsg30
Nsg31
Nsg33
Nsg34
Nsg35
Nsg112
Nsg36
Nsg37
Nsg38
Nsg39
Nsg40
Nsg41
I01
sg42
Nsg43
Nsg44
Nsg45
Nsg46
Nsg47
Nstp170
Rp171
sbg126
(g89
(g21
g52
tp172
Rp173
(dp174
btp175
Rp176
(dp177
btp178
Rp179
(dp180
btp181
Rp182
(dp183
btp184
Rp185
(dp186
bg90
(csympy.core.numbers
Half
p187
(tRp188
(dp189
bg100
g89
(g90
(g89
(g90
(g151
g89
(g18
(S'q2_d'
p190
tp191
Rp192
(dp193
g23
g2
(g24
g25
(dp194
g27
Nsg29
Nsg30
Nsg31
Nsg32
Nsg33
Nsg34
Nsg43
Nsg112
Nsg36
Nsg37
Nsg38
Nsg39
Nsg40
Nsg41
I01
sg42
Nsg35
Nsg44
Nsg45
Nsg46
Nsg47
Nstp195
Rp196
sbg18
(S'q3_d'
p197
tp198
Rp199
(dp200
g23
g2
(g24
g25
(dp201
g27
Nsg29
Nsg30
Nsg31
Nsg32
Nsg33
Nsg34
Nsg43
Nsg36
Nsg37
Nsg38
Nsg39
Nsg40
Nsg41
I01
sg42
Nsg35
Nsg44
Nsg45
Nsg46
Nsg47
Nstp202
Rp203
sbg18
(S'q1_d'
p204
tp205
Rp206
(dp207
g23
g2
(g24
g25
(dp208
g27
Nsg29
Nsg30
Nsg31
Nsg32
Nsg33
Nsg34
Nsg43
Nsg112
Nsg36
Nsg37
Nsg38
Nsg39
Nsg40
Nsg41
I01
sg42
Nsg35
Nsg44
Nsg45
Nsg46
Nsg47
Nstp209
Rp210
sbtp211
Rp212
(dp213
bg160
tp214
Rp215
(dp216
bg90
(g138
g206
g144
tp217
Rp218
(dp219
bg90
(g167
g89
(g192
g206
tp220
Rp221
(dp222
bg176
tp223
Rp224
(dp225
bg90
(g120
g89
(g192
g18
(S'q4_d'
p226
tp227
Rp228
(dp229
g23
g2
(g24
g25
(dp230
g27
Nsg29
Nsg30
Nsg31
Nsg32
Nsg33
Nsg34
Nsg43
Nsg36
Nsg37
Nsg38
Nsg39
Nsg40
Nsg41
I01
sg42
Nsg35
Nsg44
Nsg45
Nsg46
Nsg47
Nstp231
Rp232
sbg199
g206
tp233
Rp234
(dp235
bg131
tp236
Rp237
(dp238
btp239
Rp240
(dp241
bg89
(g90
(csympy.core.numbers
Integer
p242
(I-2
tp243
Rp244
(dp245
bg167
g221
csympy.functions.elementary.trigonometric
sin
p246
(g173
tp247
Rp248
(dp249
btp250
Rp251
(dp252
bg90
(g244
g138
g206
g246
(g21
tp253
Rp254
(dp255
btp256
Rp257
(dp258
bg90
(g244
g151
g212
g246
(g157
tp259
Rp260
(dp261
btp262
Rp263
(dp264
bg90
(g244
g120
g234
g246
(g128
tp265
Rp266
(dp267
btp268
Rp269
(dp270
btp271
Rp272
(dp273
btp274
Rp275
(dp276
bg90
(g89
(g90
(g242
(I2
tp277
Rp278
(dp279
bg138
g144
tp280
Rp281
(dp282
bg90
(g278
g120
g131
tp283
Rp284
(dp285
bg90
(g278
g151
g160
tp286
Rp287
(dp288
bg90
(g278
g167
g176
tp289
Rp290
(dp291
btp292
Rp293
(dp294
bg89
(g90
(g138
g18
(S'q1_dd'
p295
tp296
Rp297
(dp298
g23
g2
(g24
g25
(dp299
g107
Nsg111
Nsg41
I01
sg108
Nstp300
Rp301
sbg144
tp302
Rp303
(dp304
bg90
(g167
g89
(g18
(S'q2_dd'
p305
tp306
Rp307
(dp308
g23
g2
(g24
g25
(dp309
g27
Nsg29
Nsg30
Nsg31
Nsg33
Nsg34
Nsg43
Nsg36
Nsg37
Nsg38
Nsg39
Nsg40
Nsg41
I01
sg42
Nsg35
Nsg44
Nsg45
Nsg46
Nsg47
Nstp310
Rp311
sbg297
tp312
Rp313
(dp314
bg176
tp315
Rp316
(dp317
bg90
(g151
g89
(g18
(S'q3_dd'
p318
tp319
Rp320
(dp321
g23
g2
(g24
g25
(dp322
g27
Nsg29
Nsg30
Nsg31
Nsg33
Nsg34
Nsg35
Nsg36
Nsg37
Nsg38
Nsg39
Nsg40
Nsg41
I01
sg42
Nsg43
Nsg44
Nsg45
Nsg46
Nsg47
Nstp323
Rp324
sbg307
g297
tp325
Rp326
(dp327
bg160
tp328
Rp329
(dp330
bg90
(csympy.core.numbers
NegativeOne
p331
(tRp332
(dp333
bg151
csympy.core.power
Pow
p334
(g212
g278
tp335
Rp336
(dp337
bg260
tp338
Rp339
(dp340
bg90
(g120
g89
(g18
(S'q4_dd'
p341
tp342
Rp343
(dp344
g23
g2
(g24
g25
(dp345
g40
Nsg43
Nsg41
I01
sg36
Nsg42
Nsg47
Nsg33
Nstp346
Rp347
sbg320
g307
g297
tp348
Rp349
(dp350
bg131
tp351
Rp352
(dp353
bg90
(g332
g138
g334
(g206
g278
tp354
Rp355
(dp356
bg254
tp357
Rp358
(dp359
bg90
(g332
g167
g334
(g221
g278
tp360
Rp361
(dp362
bg248
tp363
Rp364
(dp365
bg90
(g332
g120
g334
(g89
(g192
g228
g199
g206
tp366
Rp367
(dp368
bg278
tp369
Rp370
(dp371
bg266
tp372
Rp373
(dp374
btp375
Rp376
(dp377
btp378
Rp379
(dp380
bg90
(g89
(g90
(g244
g120
g266
tp381
Rp382
(dp383
bg90
(g244
g151
g260
tp384
Rp385
(dp386
bg90
(g244
g138
g254
tp387
Rp388
(dp389
bg90
(g244
g167
g248
tp390
Rp391
(dp392
btp393
Rp394
(dp395
bg89
(g90
(g332
g138
g355
g144
tp396
Rp397
(dp398
bg90
(g332
g167
g313
g248
tp399
Rp400
(dp401
bg90
(g332
g151
g326
g260
tp402
Rp403
(dp404
bg90
(g332
g120
g370
g131
tp405
Rp406
(dp407
bg90
(g332
g167
g361
g176
tp408
Rp409
(dp410
bg90
(g332
g138
g297
g254
tp411
Rp412
(dp413
bg90
(g332
g151
g336
g160
tp414
Rp415
(dp416
bg90
(g332
g120
g349
g266
tp417
Rp418
(dp419
btp420
Rp421
(dp422
btp423
Rp424
(dp425
bg90
(g89
(g90
(g332
g120
g367
g266
tp426
Rp427
(dp428
bg90
(g332
g167
g221
g248
tp429
Rp430
(dp431
bg90
(g332
g138
g206
g254
tp432
Rp433
(dp434
bg90
(g332
g151
g212
g260
tp435
Rp436
(dp437
btp438
Rp439
(dp440
bg89
(g90
(g244
g120
g234
g131
tp441
Rp442
(dp443
bg90
(g244
g167
g221
g176
tp444
Rp445
(dp446
bg90
(g244
g138
g206
g144
tp447
Rp448
(dp449
bg90
(g244
g151
g212
g160
tp450
Rp451
(dp452
btp453
Rp454
(dp455
btp456
Rp457
(dp458
btp459
Rp460
(dp461
btp462
Rp463
(dp464
bg90
(g188
g100
g334
(g120
g278
tp465
Rp466
(dp467
bg89
(g90
(g278
g320
tp468
Rp469
(dp470
bg90
(g278
g307
tp471
Rp472
(dp473
bg90
(g278
g297
tp474
Rp475
(dp476
bg90
(g278
g343
tp477
Rp478
(dp479
btp480
Rp481
(dp482
btp483
Rp484
(dp485
bg90
(csympy.core.numbers
Rational
p486
(I-1
I2
tp487
Rp488
(dp489
bg100
g89
(g90
(g240
g89
(g90
(g244
g167
g221
g248
tp490
Rp491
(dp492
bg90
(g244
g138
g206
g254
tp493
Rp494
(dp495
bg90
(g244
g151
g212
g260
tp496
Rp497
(dp498
bg90
(g244
g120
g234
g266
tp499
Rp500
(dp501
btp502
Rp503
(dp504
btp505
Rp506
(dp507
bg90
(g439
g89
(g90
(g244
g120
g367
g131
tp508
Rp509
(dp510
bg90
(g244
g167
g221
g176
tp511
Rp512
(dp513
bg90
(g244
g138
g206
g144
tp514
Rp515
(dp516
bg90
(g244
g151
g212
g160
tp517
Rp518
(dp519
btp520
Rp521
(dp522
btp523
Rp524
(dp525
btp526
Rp527
(dp528
btp529
Rp530
(dp531
btp532
Rp533
(dp534
bag89
(g90
(g188
g100
g466
g481
tp535
Rp536
(dp537
bg90
(g91
((I0
S'139eb851eb851fL'
p538
I-49
I53
tp539
tp540
Rp541
(dp542
g97
I53
sbg100
g89
(g134
g163
g179
tp543
Rp544
(dp545
btp546
Rp547
(dp548
bg90
(g188
g100
g89
(g90
(g89
(g90
(g244
g120
g234
g131
tp549
Rp550
(dp551
bg90
(g244
g167
g221
g176
tp552
Rp553
(dp554
bg90
(g244
g151
g212
g160
tp555
Rp556
(dp557
btp558
Rp559
(dp560
bg439
tp561
Rp562
(dp563
bg90
(g89
(g90
(g278
g120
g131
tp564
Rp565
(dp566
bg90
(g278
g151
g160
tp567
Rp568
(dp569
bg90
(g278
g167
g176
tp570
Rp571
(dp572
btp573
Rp574
(dp575
bg376
tp576
Rp577
(dp578
bg90
(g89
(g90
(g244
g120
g266
tp579
Rp580
(dp581
bg90
(g244
g151
g260
tp582
Rp583
(dp584
bg90
(g244
g167
g248
tp585
Rp586
(dp587
btp588
Rp589
(dp590
bg421
tp591
Rp592
(dp593
bg90
(g89
(g90
(g244
g167
g221
g248
tp594
Rp595
(dp596
bg90
(g244
g151
g212
g260
tp597
Rp598
(dp599
bg90
(g244
g120
g234
g266
tp600
Rp601
(dp602
btp603
Rp604
(dp605
bg240
tp606
Rp607
(dp608
btp609
Rp610
(dp611
btp612
Rp613
(dp614
bg90
(g488
g100
g89
(g90
(g89
(g90
(g244
g120
g367
g131
tp615
Rp616
(dp617
bg90
(g244
g167
g221
g176
tp618
Rp619
(dp620
bg90
(g244
g151
g212
g160
tp621
Rp622
(dp623
btp624
Rp625
(dp626
bg439
tp627
Rp628
(dp629
bg90
(g89
(g90
(g244
g167
g221
g248
tp630
Rp631
(dp632
bg90
(g244
g151
g212
g260
tp633
Rp634
(dp635
bg90
(g244
g120
g234
g266
tp636
Rp637
(dp638
btp639
Rp640
(dp641
bg240
tp642
Rp643
(dp644
btp645
Rp646
(dp647
btp648
Rp649
(dp650
btp651
Rp652
(dp653
bag89
(g90
(g188
g100
g89
(g90
(g89
(g90
(g244
g120
g266
tp654
Rp655
(dp656
bg90
(g244
g151
g260
tp657
Rp658
(dp659
btp660
Rp661
(dp662
bg421
tp663
Rp664
(dp665
bg90
(g89
(g90
(g278
g120
g131
tp666
Rp667
(dp668
bg90
(g278
g151
g160
tp669
Rp670
(dp671
btp672
Rp673
(dp674
bg376
tp675
Rp676
(dp677
bg90
(g89
(g90
(g244
g151
g212
g260
tp678
Rp679
(dp680
bg90
(g244
g120
g234
g266
tp681
Rp682
(dp683
btp684
Rp685
(dp686
bg240
tp687
Rp688
(dp689
bg90
(g89
(g90
(g244
g120
g234
g131
tp690
Rp691
(dp692
bg90
(g244
g151
g212
g160
tp693
Rp694
(dp695
btp696
Rp697
(dp698
bg439
tp699
Rp700
(dp701
btp702
Rp703
(dp704
btp705
Rp706
(dp707
bg90
(g188
g100
g466
g481
tp708
Rp709
(dp710
bg90
(g91
((I0
S'139eb851eb851fL'
p711
I-49
I53
tp712
tp713
Rp714
(dp715
g97
I53
sbg100
g89
(g134
g163
tp716
Rp717
(dp718
btp719
Rp720
(dp721
bg90
(g488
g100
g89
(g90
(g89
(g90
(g244
g151
g212
g260
tp722
Rp723
(dp724
bg90
(g244
g120
g234
g266
tp725
Rp726
(dp727
btp728
Rp729
(dp730
bg240
tp731
Rp732
(dp733
bg90
(g89
(g90
(g244
g120
g367
g131
tp734
Rp735
(dp736
bg90
(g244
g151
g212
g160
tp737
Rp738
(dp739
btp740
Rp741
(dp742
bg439
tp743
Rp744
(dp745
btp746
Rp747
(dp748
btp749
Rp750
(dp751
btp752
Rp753
(dp754
bag89
(g90
(g488
g100
g89
(g90
(g244
g120
g234
g240
g266
tp755
Rp756
(dp757
bg90
(g244
g120
g234
g439
g131
tp758
Rp759
(dp760
btp761
Rp762
(dp763
btp764
Rp765
(dp766
bg90
(g91
((I0
S'139eb851eb851fL'
p767
I-49
I53
tp768
tp769
Rp770
(dp771
g97
I53
sbg120
g100
g131
tp772
Rp773
(dp774
bg90
(g188
g100
g466
g481
tp775
Rp776
(dp777
bg90
(g188
g100
g89
(g90
(g244
g120
g421
g266
tp778
Rp779
(dp780
bg90
(g278
g120
g376
g131
tp781
Rp782
(dp783
bg90
(g244
g120
g234
g240
g266
tp784
Rp785
(dp786
bg90
(g244
g120
g234
g439
g131
tp787
Rp788
(dp789
btp790
Rp791
(dp792
btp793
Rp794
(dp795
btp796
Rp797
(dp798
basg71
I1
sbsS'xd'
p799
NsS'qdds'
p800
g2
(g11
g4
Ntp801
Rp802
(dp803
g15
I4
sg16
(lp804
g297
ag307
ag320
ag343
asg71
I1
sbsS'u'
p805
NsS'qds'
p806
g2
(g11
g4
Ntp807
Rp808
(dp809
g15
I4
sg16
(lp810
g206
ag192
ag199
ag228
asg71
I1
sbsS'zero_equilibrium'
p811
NsS'state_eq'
p812
NsS'solved_eq'
p813
NsS'U'
p814
g90
(g91
((I0
S'139eb851eb851fL'
p815
I-49
I53
tp816
tp817
Rp818
(dp819
g97
I53
sbg100
g89
(g90
(g138
g254
tp820
Rp821
(dp822
bg90
(g120
g266
tp823
Rp824
(dp825
bg90
(g167
g248
tp826
Rp827
(dp828
bg90
(g151
g260
tp829
Rp830
(dp831
btp832
Rp833
(dp834
btp835
Rp836
(dp837
bsS'disforce_list'
p838
NsS'T'
p839
g89
(g90
(g188
g100
g466
g370
tp840
Rp841
(dp842
bg90
(g188
g100
g89
(g334
(g240
g278
tp843
Rp844
(dp845
bg334
(g439
g278
tp846
Rp847
(dp848
btp849
Rp850
(dp851
btp852
Rp853
(dp854
btp855
Rp856
(dp857
bsbs.